target datalayout = "e-m:e-p270:32:32-p271:32:32-p272:64:64-i64:64-i128:128-f80:128-n8:16:32:64-S128"
target triple = "x86_64-pc-linux-gnu"

%struct._Node = type { %union.anon.35 }
%union.anon.35 = type { %struct.BagNode }
%struct.BagNode = type { i32, i32, ptr, ptr, i32, %union.anon.37, i32, i32, i32, i32, i32 }
%union.anon.37 = type { %struct.anon.40 }
%struct.anon.40 = type { ptr, ptr }
%struct.anon.36 = type { i32, i32, ptr, ptr }
%struct.ConsAltNode = type { i32, i32, ptr, ptr, ptr }
%struct.StrNode = type { i32, i32, ptr, ptr, ptr, i32, [24 x i8], i32 }
%struct.CtypeNode = type { i32, i32, ptr, i32, i32, i32 }
%struct.QuantNode = type { i32, i32, ptr, ptr, i32, i32, i32, i32, ptr, ptr, i32, i32 }

; Function Attrs: nounwind uwtable
define internal i32 @get_tree_tail_literal(ptr noundef %0, ptr noundef %1, ptr noundef %2, i32 noundef %3) #0 {
  %5 = alloca i32, align 4
  %6 = alloca ptr, align 8
  %7 = alloca ptr, align 8
  %8 = alloca ptr, align 8
  %9 = alloca i32, align 4
  %10 = alloca i32, align 4
  %11 = alloca i32, align 4
  %12 = alloca ptr, align 8
  %13 = alloca ptr, align 8
  %14 = alloca ptr, align 8
  store ptr %0, ptr %6, align 8, !tbaa !47
  store ptr %1, ptr %7, align 8, !tbaa !58
  store ptr %2, ptr %8, align 8, !tbaa !8
  store i32 %3, ptr %9, align 4, !tbaa !4
  call void @llvm.lifetime.start.p0(i64 4, ptr %10) #9
  %15 = load i32, ptr %9, align 4, !tbaa !4
  %16 = add nsw i32 %15, 1
  store i32 %16, ptr %9, align 4, !tbaa !4
  %17 = load i32, ptr %9, align 4, !tbaa !4
  %18 = icmp sge i32 %17, 16
  br i1 %18, label %19, label %20

19:                                               ; preds = %4
  store i32 -1, ptr %5, align 4
  store i32 1, ptr %11, align 4
  br label %182

20:                                               ; preds = %4
  %21 = load ptr, ptr %6, align 8, !tbaa !47
  %22 = getelementptr inbounds nuw %struct._Node, ptr %21, i32 0, i32 0
  %23 = getelementptr inbounds nuw %struct.anon.36, ptr %22, i32 0, i32 0
  %24 = load i32, ptr %23, align 8, !tbaa !32
  switch i32 %24, label %179 [
    i32 7, label %25
    i32 9, label %62
    i32 2, label %71
    i32 1, label %79
    i32 0, label %82
    i32 4, label %114
    i32 5, label %132
    i32 6, label %177
    i32 10, label %177
    i32 8, label %178
    i32 3, label %178
  ]

25:                                               ; preds = %20
  %26 = load ptr, ptr %6, align 8, !tbaa !47
  %27 = getelementptr inbounds nuw %struct._Node, ptr %26, i32 0, i32 0
  %28 = getelementptr inbounds nuw %struct.ConsAltNode, ptr %27, i32 0, i32 4
  %29 = load ptr, ptr %28, align 8, !tbaa !32
  %30 = icmp eq ptr %29, null
  br i1 %30, label %31, label %40

31:                                               ; preds = %25
  %32 = load ptr, ptr %6, align 8, !tbaa !47
  %33 = getelementptr inbounds nuw %struct._Node, ptr %32, i32 0, i32 0
  %34 = getelementptr inbounds nuw %struct.ConsAltNode, ptr %33, i32 0, i32 3
  %35 = load ptr, ptr %34, align 8, !tbaa !32
  %36 = load ptr, ptr %7, align 8, !tbaa !58
  %37 = load ptr, ptr %8, align 8, !tbaa !8
  %38 = load i32, ptr %9, align 4, !tbaa !4
  %39 = call i32 @get_tree_tail_literal(ptr noundef %35, ptr noundef %36, ptr noundef %37, i32 noundef %38)
  store i32 %39, ptr %10, align 4, !tbaa !4
  br label %61

40:                                               ; preds = %25
  %41 = load ptr, ptr %6, align 8, !tbaa !47
  %42 = getelementptr inbounds nuw %struct._Node, ptr %41, i32 0, i32 0
  %43 = getelementptr inbounds nuw %struct.ConsAltNode, ptr %42, i32 0, i32 4
  %44 = load ptr, ptr %43, align 8, !tbaa !32
  %45 = load ptr, ptr %7, align 8, !tbaa !58
  %46 = load ptr, ptr %8, align 8, !tbaa !8
  %47 = load i32, ptr %9, align 4, !tbaa !4
  %48 = call i32 @get_tree_tail_literal(ptr noundef %44, ptr noundef %45, ptr noundef %46, i32 noundef %47)
  store i32 %48, ptr %10, align 4, !tbaa !4
  %49 = load i32, ptr %10, align 4, !tbaa !4
  %50 = icmp eq i32 %49, 0
  br i1 %50, label %51, label %60

51:                                               ; preds = %40
  %52 = load ptr, ptr %6, align 8, !tbaa !47
  %53 = getelementptr inbounds nuw %struct._Node, ptr %52, i32 0, i32 0
  %54 = getelementptr inbounds nuw %struct.ConsAltNode, ptr %53, i32 0, i32 3
  %55 = load ptr, ptr %54, align 8, !tbaa !32
  %56 = load ptr, ptr %7, align 8, !tbaa !58
  %57 = load ptr, ptr %8, align 8, !tbaa !8
  %58 = load i32, ptr %9, align 4, !tbaa !4
  %59 = call i32 @get_tree_tail_literal(ptr noundef %55, ptr noundef %56, ptr noundef %57, i32 noundef %58)
  store i32 %59, ptr %10, align 4, !tbaa !4
  br label %60

60:                                               ; preds = %51, %40
  br label %61

61:                                               ; preds = %60, %31
  br label %180

62:                                               ; preds = %20
  %63 = load ptr, ptr %6, align 8, !tbaa !47
  %64 = getelementptr inbounds nuw %struct._Node, ptr %63, i32 0, i32 0
  %65 = getelementptr inbounds nuw %struct.anon.36, ptr %64, i32 0, i32 3
  %66 = load ptr, ptr %65, align 8, !tbaa !32
  %67 = load ptr, ptr %7, align 8, !tbaa !58
  %68 = load ptr, ptr %8, align 8, !tbaa !8
  %69 = load i32, ptr %9, align 4, !tbaa !4
  %70 = call i32 @get_tree_tail_literal(ptr noundef %66, ptr noundef %67, ptr noundef %68, i32 noundef %69)
  store i32 %70, ptr %10, align 4, !tbaa !4
  br label %180

71:                                               ; preds = %20
  %72 = load ptr, ptr %6, align 8, !tbaa !47
  %73 = getelementptr inbounds nuw %struct._Node, ptr %72, i32 0, i32 0
  %74 = getelementptr inbounds nuw %struct.CtypeNode, ptr %73, i32 0, i32 3
  %75 = load i32, ptr %74, align 8, !tbaa !32
  %76 = icmp eq i32 %75, -1
  br i1 %76, label %77, label %78

77:                                               ; preds = %71
  store i32 -1, ptr %10, align 4, !tbaa !4
  br label %180

78:                                               ; preds = %71
  br label %79

79:                                               ; preds = %20, %78
  %80 = load ptr, ptr %6, align 8, !tbaa !47
  %81 = load ptr, ptr %7, align 8, !tbaa !58
  store ptr %80, ptr %81, align 8, !tbaa !47
  store i32 1, ptr %10, align 4, !tbaa !4
  br label %180

82:                                               ; preds = %20
  call void @llvm.lifetime.start.p0(i64 8, ptr %12) #9
  %83 = load ptr, ptr %6, align 8, !tbaa !47
  %84 = getelementptr inbounds nuw %struct._Node, ptr %83, i32 0, i32 0
  store ptr %84, ptr %12, align 8, !tbaa !15
  %85 = load ptr, ptr %12, align 8, !tbaa !15
  %86 = getelementptr inbounds nuw %struct.StrNode, ptr %85, i32 0, i32 4
  %87 = load ptr, ptr %86, align 8, !tbaa !165
  %88 = load ptr, ptr %12, align 8, !tbaa !15
  %89 = getelementptr inbounds nuw %struct.StrNode, ptr %88, i32 0, i32 3
  %90 = load ptr, ptr %89, align 8, !tbaa !163
  %91 = icmp ule ptr %87, %90
  br i1 %91, label %92, label %93

92:                                               ; preds = %82
  store i32 0, ptr %10, align 4, !tbaa !4
  store i32 2, ptr %11, align 4
  br label %111

93:                                               ; preds = %82
  %94 = load ptr, ptr %6, align 8, !tbaa !47
  %95 = getelementptr inbounds nuw %struct._Node, ptr %94, i32 0, i32 0
  %96 = getelementptr inbounds nuw %struct.anon.36, ptr %95, i32 0, i32 1
  %97 = load i32, ptr %96, align 4, !tbaa !32
  %98 = and i32 %97, 2097152
  %99 = icmp ne i32 %98, 0
  br i1 %99, label %100, label %108

100:                                              ; preds = %93
  %101 = load ptr, ptr %6, align 8, !tbaa !47
  %102 = getelementptr inbounds nuw %struct._Node, ptr %101, i32 0, i32 0
  %103 = getelementptr inbounds nuw %struct.StrNode, ptr %102, i32 0, i32 5
  %104 = load i32, ptr %103, align 8, !tbaa !32
  %105 = and i32 %104, 1
  %106 = icmp ne i32 %105, 0
  br i1 %106, label %108, label %107

107:                                              ; preds = %100
  store i32 -1, ptr %10, align 4, !tbaa !4
  store i32 2, ptr %11, align 4
  br label %111

108:                                              ; preds = %100, %93
  %109 = load ptr, ptr %6, align 8, !tbaa !47
  %110 = load ptr, ptr %7, align 8, !tbaa !58
  store ptr %109, ptr %110, align 8, !tbaa !47
  store i32 1, ptr %10, align 4, !tbaa !4
  store i32 0, ptr %11, align 4
  br label %111

111:                                              ; preds = %108, %107, %92
  call void @llvm.lifetime.end.p0(i64 8, ptr %12) #9
  %112 = load i32, ptr %11, align 4
  switch i32 %112, label %184 [
    i32 0, label %113
    i32 2, label %180
  ]

113:                                              ; preds = %111
  br label %180

114:                                              ; preds = %20
  call void @llvm.lifetime.start.p0(i64 8, ptr %13) #9
  %115 = load ptr, ptr %6, align 8, !tbaa !47
  %116 = getelementptr inbounds nuw %struct._Node, ptr %115, i32 0, i32 0
  store ptr %116, ptr %13, align 8, !tbaa !15
  %117 = load ptr, ptr %13, align 8, !tbaa !15
  %118 = getelementptr inbounds nuw %struct.QuantNode, ptr %117, i32 0, i32 4
  %119 = load i32, ptr %118, align 8, !tbaa !189
  %120 = icmp ne i32 %119, 0
  br i1 %120, label %121, label %130

121:                                              ; preds = %114
  %122 = load ptr, ptr %6, align 8, !tbaa !47
  %123 = getelementptr inbounds nuw %struct._Node, ptr %122, i32 0, i32 0
  %124 = getelementptr inbounds nuw %struct.anon.36, ptr %123, i32 0, i32 3
  %125 = load ptr, ptr %124, align 8, !tbaa !32
  %126 = load ptr, ptr %7, align 8, !tbaa !58
  %127 = load ptr, ptr %8, align 8, !tbaa !8
  %128 = load i32, ptr %9, align 4, !tbaa !4
  %129 = call i32 @get_tree_tail_literal(ptr noundef %125, ptr noundef %126, ptr noundef %127, i32 noundef %128)
  store i32 %129, ptr %10, align 4, !tbaa !4
  br label %131

130:                                              ; preds = %114
  store i32 -1, ptr %10, align 4, !tbaa !4
  br label %131

131:                                              ; preds = %130, %121
  call void @llvm.lifetime.end.p0(i64 8, ptr %13) #9
  br label %180

132:                                              ; preds = %20
  call void @llvm.lifetime.start.p0(i64 8, ptr %14) #9
  %133 = load ptr, ptr %6, align 8, !tbaa !47
  %134 = getelementptr inbounds nuw %struct._Node, ptr %133, i32 0, i32 0
  store ptr %134, ptr %14, align 8, !tbaa !15
  %135 = load ptr, ptr %14, align 8, !tbaa !15
  %136 = getelementptr inbounds nuw %struct.BagNode, ptr %135, i32 0, i32 4
  %137 = load i32, ptr %136, align 8, !tbaa !156
  %138 = icmp eq i32 %137, 0
  br i1 %138, label %139, label %167

139:                                              ; preds = %132
  %140 = load ptr, ptr %6, align 8, !tbaa !47
  %141 = getelementptr inbounds nuw %struct._Node, ptr %140, i32 0, i32 0
  %142 = getelementptr inbounds nuw %struct.anon.36, ptr %141, i32 0, i32 1
  %143 = load i32, ptr %142, align 4, !tbaa !32
  %144 = and i32 %143, 8
  %145 = icmp ne i32 %144, 0
  br i1 %145, label %146, label %147

146:                                              ; preds = %139
  store i32 -1, ptr %10, align 4, !tbaa !4
  br label %166

147:                                              ; preds = %139
  %148 = load ptr, ptr %6, align 8, !tbaa !47
  %149 = getelementptr inbounds nuw %struct._Node, ptr %148, i32 0, i32 0
  %150 = getelementptr inbounds nuw %struct.anon.36, ptr %149, i32 0, i32 1
  %151 = load i32, ptr %150, align 4, !tbaa !32
  %152 = or i32 %151, 8
  store i32 %152, ptr %150, align 4, !tbaa !32
  %153 = load ptr, ptr %6, align 8, !tbaa !47
  %154 = getelementptr inbounds nuw %struct._Node, ptr %153, i32 0, i32 0
  %155 = getelementptr inbounds nuw %struct.anon.36, ptr %154, i32 0, i32 3
  %156 = load ptr, ptr %155, align 8, !tbaa !32
  %157 = load ptr, ptr %7, align 8, !tbaa !58
  %158 = load ptr, ptr %8, align 8, !tbaa !8
  %159 = load i32, ptr %9, align 4, !tbaa !4
  %160 = call i32 @get_tree_tail_literal(ptr noundef %156, ptr noundef %157, ptr noundef %158, i32 noundef %159)
  store i32 %160, ptr %10, align 4, !tbaa !4
  %161 = load ptr, ptr %6, align 8, !tbaa !47
  %162 = getelementptr inbounds nuw %struct._Node, ptr %161, i32 0, i32 0
  %163 = getelementptr inbounds nuw %struct.anon.36, ptr %162, i32 0, i32 1
  %164 = load i32, ptr %163, align 4, !tbaa !32
  %165 = and i32 %164, -9
  store i32 %165, ptr %163, align 4, !tbaa !32
  br label %166

166:                                              ; preds = %147, %146
  br label %176

167:                                              ; preds = %132
  %168 = load ptr, ptr %6, align 8, !tbaa !47
  %169 = getelementptr inbounds nuw %struct._Node, ptr %168, i32 0, i32 0
  %170 = getelementptr inbounds nuw %struct.anon.36, ptr %169, i32 0, i32 3
  %171 = load ptr, ptr %170, align 8, !tbaa !32
  %172 = load ptr, ptr %7, align 8, !tbaa !58
  %173 = load ptr, ptr %8, align 8, !tbaa !8
  %174 = load i32, ptr %9, align 4, !tbaa !4
  %175 = call i32 @get_tree_tail_literal(ptr noundef %171, ptr noundef %172, ptr noundef %173, i32 noundef %174)
  store i32 %175, ptr %10, align 4, !tbaa !4
  br label %176

176:                                              ; preds = %167, %166
  call void @llvm.lifetime.end.p0(i64 8, ptr %14) #9
  br label %180

177:                                              ; preds = %20, %20
  store i32 0, ptr %10, align 4, !tbaa !4
  br label %180

178:                                              ; preds = %20, %20
  br label %179

179:                                              ; preds = %20, %178
  store i32 -1, ptr %10, align 4, !tbaa !4
  br label %180

180:                                              ; preds = %179, %177, %176, %131, %113, %111, %79, %77, %62, %61
  %181 = load i32, ptr %10, align 4, !tbaa !4
  store i32 %181, ptr %5, align 4
  store i32 1, ptr %11, align 4
  br label %182

182:                                              ; preds = %180, %19
  call void @llvm.lifetime.end.p0(i64 4, ptr %10) #9
  %183 = load i32, ptr %5, align 4
  ret i32 %183

184:                                              ; preds = %111
  unreachable
}